target datalayout = "e-m:e-p270:32:32-p271:32:32-p272:64:64-i64:64-i128:128-f80:128-n8:16:32:64-S128"
target triple = "x86_64-pc-linux-gnu"

%struct.Int128_ = type { i64, i64 }

; Function Attrs: nounwind uwtable
define dso_local { i64, i64 } @i128_add(i64 %0, i64 %1, i64 %2, i64 %3) #0 {
  %5 = alloca %struct.Int128_, align 8
  %6 = alloca %struct.Int128_, align 8
  %7 = alloca %struct.Int128_, align 8
  %8 = alloca i64, align 8
  %9 = alloca i64, align 8
  %10 = getelementptr inbounds { i64, i64 }, ptr %6, i32 0, i32 0
  store i64 %0, ptr %10, align 8
  %11 = getelementptr inbounds { i64, i64 }, ptr %6, i32 0, i32 1
  store i64 %1, ptr %11, align 8
  %12 = getelementptr inbounds { i64, i64 }, ptr %7, i32 0, i32 0
  store i64 %2, ptr %12, align 8
  %13 = getelementptr inbounds { i64, i64 }, ptr %7, i32 0, i32 1
  store i64 %3, ptr %13, align 8
  %14 = getelementptr inbounds %struct.Int128_, ptr %6, i32 0, i32 1
  %15 = load i64, ptr %14, align 8
  %16 = getelementptr inbounds %struct.Int128_, ptr %7, i32 0, i32 1
  %17 = load i64, ptr %16, align 8
  %18 = add i64 %15, %17
  store i64 %18, ptr %8, align 8
  %19 = getelementptr inbounds %struct.Int128_, ptr %6, i32 0, i32 0
  %20 = load i64, ptr %19, align 8
  %21 = getelementptr inbounds %struct.Int128_, ptr %7, i32 0, i32 0
  %22 = load i64, ptr %21, align 8
  %23 = add i64 %20, %22
  store i64 %23, ptr %9, align 8
  %24 = load i64, ptr %8, align 8
  %25 = getelementptr inbounds %struct.Int128_, ptr %6, i32 0, i32 1
  %26 = load i64, ptr %25, align 8
  %27 = icmp ult i64 %24, %26
  br i1 %27, label %28, label %31

28:                                               ; preds = %4
  %29 = load i64, ptr %9, align 8
  %30 = add i64 %29, 1
  store i64 %30, ptr %9, align 8
  br label %31

31:                                               ; preds = %28, %4
  %32 = getelementptr inbounds %struct.Int128_, ptr %5, i32 0, i32 0
  %33 = load i64, ptr %9, align 8
  store i64 %33, ptr %32, align 8
  %34 = getelementptr inbounds %struct.Int128_, ptr %5, i32 0, i32 1
  %35 = load i64, ptr %8, align 8
  store i64 %35, ptr %34, align 8
  %36 = load { i64, i64 }, ptr %5, align 8
  ret { i64, i64 } %36
}