; Function Attrs: mustprogress nofree norecurse nosync nounwind willreturn memory(none) uwtable
define dso_local { i64, i64 } @i128_add(i64 %0, i64 %1, i64 %2, i64 %3) local_unnamed_addr #1 {
  %5 = add i64 %3, %1
  %6 = add i64 %2, %0
  %7 = icmp ult i64 %5, %1
  %8 = zext i1 %7 to i64
  %spec.select = add i64 %6, %8
  %.fca.0.insert = insertvalue { i64, i64 } poison, i64 %spec.select, 0
  %.fca.1.insert = insertvalue { i64, i64 } %.fca.0.insert, i64 %5, 1
  ret { i64, i64 } %.fca.1.insert
}